target datalayout = "e-m:e-p270:32:32-p271:32:32-p272:64:64-i64:64-i128:128-f80:128-n8:16:32:64-S128"
target triple = "x86_64-pc-linux-gnu"

%struct.strbuf = type { i64, i64, ptr }
%struct.strvec = type { ptr, i64, i64 }
%struct.replay_ctx = type { %struct.strbuf, %struct.strbuf, ptr, i32, i8 }
%struct.replay_opts = type { i32, i32, i32, i32, i32, i32, i32, i32, i32, i32, i32, i32, i32, i32, i32, i32, i32, i32, ptr, i32, i32, ptr, ptr, %struct.strvec, ptr, %struct.object_id, i32, ptr, ptr }
%struct.object_id = type { [32 x i8], i32 }

; Function Attrs: nounwind uwtable
define internal void @replay_ctx_release(ptr noundef %0) #0 {
  %2 = alloca ptr, align 8
  store ptr %0, ptr %2, align 8, !tbaa !11
  %3 = load ptr, ptr %2, align 8, !tbaa !11
  %4 = getelementptr inbounds nuw %struct.replay_ctx, ptr %3, i32 0, i32 1
  call void @strbuf_release(ptr noundef %4)
  %5 = load ptr, ptr %2, align 8, !tbaa !11
  %6 = getelementptr inbounds nuw %struct.replay_ctx, ptr %5, i32 0, i32 0
  call void @strbuf_release(ptr noundef %6)
  ret void
}

; Function Attrs: nounwind uwtable
define dso_local void @replay_opts_release(ptr noundef %0) #0 {
  %2 = alloca ptr, align 8
  %3 = alloca ptr, align 8
  store ptr %0, ptr %2, align 8, !tbaa !13
  call void @llvm.lifetime.start.p0(i64 8, ptr %3) #11
  %4 = load ptr, ptr %2, align 8, !tbaa !13
  %5 = getelementptr inbounds nuw %struct.replay_opts, ptr %4, i32 0, i32 28
  %6 = load ptr, ptr %5, align 8, !tbaa !33
  store ptr %6, ptr %3, align 8, !tbaa !11
  %7 = load ptr, ptr %2, align 8, !tbaa !13
  %8 = getelementptr inbounds nuw %struct.replay_opts, ptr %7, i32 0, i32 18
  %9 = load ptr, ptr %8, align 8, !tbaa !27
  call void @free(ptr noundef %9) #11
  %10 = load ptr, ptr %2, align 8, !tbaa !13
  %11 = getelementptr inbounds nuw %struct.replay_opts, ptr %10, i32 0, i32 24
  %12 = load ptr, ptr %11, align 8, !tbaa !34
  call void @free(ptr noundef %12) #11
  %13 = load ptr, ptr %2, align 8, !tbaa !13
  %14 = getelementptr inbounds nuw %struct.replay_opts, ptr %13, i32 0, i32 21
  %15 = load ptr, ptr %14, align 8, !tbaa !28
  call void @free(ptr noundef %15) #11
  %16 = load ptr, ptr %2, align 8, !tbaa !13
  %17 = getelementptr inbounds nuw %struct.replay_opts, ptr %16, i32 0, i32 22
  %18 = load ptr, ptr %17, align 8, !tbaa !35
  call void @free(ptr noundef %18) #11
  %19 = load ptr, ptr %2, align 8, !tbaa !13
  %20 = getelementptr inbounds nuw %struct.replay_opts, ptr %19, i32 0, i32 23
  call void @strvec_clear(ptr noundef %20)
  %21 = load ptr, ptr %2, align 8, !tbaa !13
  %22 = getelementptr inbounds nuw %struct.replay_opts, ptr %21, i32 0, i32 27
  %23 = load ptr, ptr %22, align 8, !tbaa !36
  %24 = icmp ne ptr %23, null
  br i1 %24, label %25, label %29

25:                                               ; preds = %1
  %26 = load ptr, ptr %2, align 8, !tbaa !13
  %27 = getelementptr inbounds nuw %struct.replay_opts, ptr %26, i32 0, i32 27
  %28 = load ptr, ptr %27, align 8, !tbaa !36
  call void @release_revisions(ptr noundef %28)
  br label %29

29:                                               ; preds = %25, %1
  %30 = load ptr, ptr %2, align 8, !tbaa !13
  %31 = getelementptr inbounds nuw %struct.replay_opts, ptr %30, i32 0, i32 27
  %32 = load ptr, ptr %31, align 8, !tbaa !36
  call void @free(ptr noundef %32) #11
  %33 = load ptr, ptr %3, align 8, !tbaa !11
  call void @replay_ctx_release(ptr noundef %33)
  %34 = load ptr, ptr %2, align 8, !tbaa !13
  %35 = getelementptr inbounds nuw %struct.replay_opts, ptr %34, i32 0, i32 28
  %36 = load ptr, ptr %35, align 8, !tbaa !33
  call void @free(ptr noundef %36) #11
  call void @llvm.lifetime.end.p0(i64 8, ptr %3) #11
  ret void
}