; Function Attrs: nounwind uwtable
define dso_local void @replay_opts_release(ptr noundef %0) local_unnamed_addr #0 {
  %2 = getelementptr inbounds nuw i8, ptr %0, i64 184
  %3 = load ptr, ptr %2, align 8, !tbaa !27
  %4 = getelementptr inbounds nuw i8, ptr %0, i64 72
  %5 = load ptr, ptr %4, align 8, !tbaa !22
  tail call void @free(ptr noundef %5) #20
  %6 = getelementptr inbounds nuw i8, ptr %0, i64 128
  %7 = load ptr, ptr %6, align 8, !tbaa !28
  tail call void @free(ptr noundef %7) #20
  %8 = getelementptr inbounds nuw i8, ptr %0, i64 88
  %9 = load ptr, ptr %8, align 8, !tbaa !23
  tail call void @free(ptr noundef %9) #20
  %10 = getelementptr inbounds nuw i8, ptr %0, i64 96
  %11 = load ptr, ptr %10, align 8, !tbaa !29
  tail call void @free(ptr noundef %11) #20
  %12 = getelementptr inbounds nuw i8, ptr %0, i64 104
  tail call void @strvec_clear(ptr noundef nonnull %12) #20
  %13 = getelementptr inbounds nuw i8, ptr %0, i64 176
  %14 = load ptr, ptr %13, align 8, !tbaa !30
  %.not = icmp eq ptr %14, null
  br i1 %.not, label %16, label %15

15:                                               ; preds = %1
  tail call void @release_revisions(ptr noundef nonnull %14) #20
  %.pre = load ptr, ptr %13, align 8, !tbaa !30
  br label %16

16:                                               ; preds = %15, %1
  %17 = phi ptr [ %.pre, %15 ], [ null, %1 ]
  tail call void @free(ptr noundef %17) #20
  %18 = getelementptr inbounds nuw i8, ptr %3, i64 24
  tail call void @strbuf_release(ptr noundef nonnull %18) #20
  tail call void @strbuf_release(ptr noundef %3) #20
  %19 = load ptr, ptr %2, align 8, !tbaa !27
  tail call void @free(ptr noundef %19) #20
  ret void
}